; Function Attrs: nounwind uwtable
define internal ptr @aes_256_cfb8_newctx(ptr noundef %0) #0 {
  %2 = tail call i32 @ossl_prov_is_running() #3
  %.not = icmp eq i32 %2, 0
  br i1 %.not, label %.thread, label %3

3:                                                ; preds = %1
  %4 = tail call noalias ptr @CRYPTO_zalloc(i64 noundef 448, ptr noundef nonnull @.str, i32 noundef 81) #3
  %.not4 = icmp eq ptr %4, null
  br i1 %.not4, label %.thread, label %5

5:                                                ; preds = %3
  %6 = tail call ptr @ossl_prov_cipher_hw_aes_cfb8(i64 noundef 256) #3
  tail call void @ossl_cipher_generic_initkey(ptr noundef nonnull %4, i64 noundef 256, i64 noundef 8, i64 noundef 128, i32 noundef 3, i64 noundef 0, ptr noundef %6, ptr noundef %0) #3
  br label %.thread

.thread:                                          ; preds = %1, %5, %3
  %7 = phi ptr [ %4, %5 ], [ null, %3 ], [ null, %1 ]
  ret ptr %7
}